target datalayout = "e-m:e-p270:32:32-p271:32:32-p272:64:64-i64:64-i128:128-f80:128-n8:16:32:64-S128"
target triple = "x86_64-pc-linux-gnu"

%struct.formnode = type { i16, i16, i16, i32, i32, i32, i32, i16, i16, i16, i32, ptr, ptr, ptr, ptr, ptr, ptr, ptr, ptr, ptr, ptr, ptr }
%struct.fieldnode = type { i16, i16, i16, i16, i16, i32, i32, i32, i32, i16, i16, i16, i16, i32, i32, i32, i32, ptr, ptr, ptr, ptr, ptr, ptr, ptr, ptr }

; Function Attrs: nounwind uwtable
define internal i32 @Synchronize_Field(ptr noundef %0) #0 {
  %2 = alloca i32, align 4
  %3 = alloca ptr, align 8
  %4 = alloca ptr, align 8
  %5 = alloca i32, align 4
  %6 = alloca i32, align 4
  store ptr %0, ptr %3, align 8, !tbaa !17
  call void @llvm.lifetime.start.p0(i64 8, ptr %4) #9
  call void @llvm.lifetime.start.p0(i64 4, ptr %5) #9
  store i32 0, ptr %5, align 4, !tbaa !35
  %7 = load ptr, ptr %3, align 8, !tbaa !17
  %8 = icmp ne ptr %7, null
  br i1 %8, label %10, label %9

9:                                                ; preds = %1
  store i32 -2, ptr %2, align 4
  store i32 1, ptr %6, align 4
  br label %133

10:                                               ; preds = %1
  %11 = load ptr, ptr %3, align 8, !tbaa !17
  %12 = getelementptr inbounds nuw %struct.fieldnode, ptr %11, i32 0, i32 20
  %13 = load ptr, ptr %12, align 8, !tbaa !46
  store ptr %13, ptr %4, align 8, !tbaa !4
  %14 = icmp ne ptr %13, null
  br i1 %14, label %15, label %125

15:                                               ; preds = %10
  %16 = load ptr, ptr %3, align 8, !tbaa !17
  %17 = getelementptr inbounds nuw %struct.fieldnode, ptr %16, i32 0, i32 20
  %18 = load ptr, ptr %17, align 8, !tbaa !46
  %19 = icmp ne ptr %18, null
  br i1 %19, label %20, label %125

20:                                               ; preds = %15
  %21 = load ptr, ptr %3, align 8, !tbaa !17
  %22 = getelementptr inbounds nuw %struct.fieldnode, ptr %21, i32 0, i32 20
  %23 = load ptr, ptr %22, align 8, !tbaa !46
  %24 = getelementptr inbounds nuw %struct.formnode, ptr %23, i32 0, i32 0
  %25 = load i16, ptr %24, align 8, !tbaa !47
  %26 = zext i16 %25 to i32
  %27 = and i32 %26, 1
  %28 = icmp ne i32 %27, 0
  br i1 %28, label %29, label %125

29:                                               ; preds = %20
  %30 = load ptr, ptr %3, align 8, !tbaa !17
  %31 = getelementptr inbounds nuw %struct.fieldnode, ptr %30, i32 0, i32 16
  %32 = load i32, ptr %31, align 8, !tbaa !23
  %33 = and i32 %32, 1
  %34 = icmp ne i32 %33, 0
  br i1 %34, label %35, label %125

35:                                               ; preds = %29
  %36 = load ptr, ptr %3, align 8, !tbaa !17
  %37 = getelementptr inbounds nuw %struct.fieldnode, ptr %36, i32 0, i32 11
  %38 = load i16, ptr %37, align 8, !tbaa !48
  %39 = sext i16 %38 to i32
  %40 = load ptr, ptr %3, align 8, !tbaa !17
  %41 = getelementptr inbounds nuw %struct.fieldnode, ptr %40, i32 0, i32 20
  %42 = load ptr, ptr %41, align 8, !tbaa !46
  %43 = getelementptr inbounds nuw %struct.formnode, ptr %42, i32 0, i32 9
  %44 = load i16, ptr %43, align 4, !tbaa !49
  %45 = sext i16 %44 to i32
  %46 = icmp eq i32 %39, %45
  br i1 %46, label %47, label %125

47:                                               ; preds = %35
  %48 = load ptr, ptr %3, align 8, !tbaa !17
  %49 = load ptr, ptr %4, align 8, !tbaa !4
  %50 = getelementptr inbounds nuw %struct.formnode, ptr %49, i32 0, i32 15
  %51 = load ptr, ptr %50, align 8, !tbaa !16
  %52 = icmp eq ptr %48, %51
  br i1 %52, label %53, label %121

53:                                               ; preds = %47
  %54 = load ptr, ptr %4, align 8, !tbaa !4
  %55 = getelementptr inbounds nuw %struct.formnode, ptr %54, i32 0, i32 6
  store i32 0, ptr %55, align 4, !tbaa !34
  %56 = load ptr, ptr %4, align 8, !tbaa !4
  %57 = getelementptr inbounds nuw %struct.formnode, ptr %56, i32 0, i32 5
  store i32 0, ptr %57, align 8, !tbaa !32
  %58 = load ptr, ptr %4, align 8, !tbaa !4
  %59 = getelementptr inbounds nuw %struct.formnode, ptr %58, i32 0, i32 4
  store i32 0, ptr %59, align 4, !tbaa !22
  %60 = load ptr, ptr %4, align 8, !tbaa !4
  %61 = getelementptr inbounds nuw %struct.formnode, ptr %60, i32 0, i32 3
  store i32 0, ptr %61, align 8, !tbaa !21
  %62 = load ptr, ptr %4, align 8, !tbaa !4
  %63 = getelementptr inbounds nuw %struct.formnode, ptr %62, i32 0, i32 13
  %64 = load ptr, ptr %63, align 8, !tbaa !9
  %65 = call i32 @werase(ptr noundef %64)
  %66 = load ptr, ptr %3, align 8, !tbaa !17
  %67 = getelementptr inbounds nuw %struct.fieldnode, ptr %66, i32 0, i32 16
  %68 = load i32, ptr %67, align 8, !tbaa !23
  %69 = and i32 %68, 4
  %70 = icmp ne i32 %69, 0
  br i1 %70, label %71, label %107

71:                                               ; preds = %53
  %72 = load ptr, ptr %3, align 8, !tbaa !17
  %73 = getelementptr inbounds nuw %struct.fieldnode, ptr %72, i32 0, i32 10
  %74 = load i16, ptr %73, align 2, !tbaa !53
  %75 = sext i16 %74 to i32
  %76 = icmp ne i32 %75, 0
  br i1 %76, label %77, label %107

77:                                               ; preds = %71
  %78 = load ptr, ptr %3, align 8, !tbaa !17
  %79 = getelementptr inbounds nuw %struct.fieldnode, ptr %78, i32 0, i32 1
  %80 = load i16, ptr %79, align 2, !tbaa !28
  %81 = sext i16 %80 to i32
  %82 = load ptr, ptr %3, align 8, !tbaa !17
  %83 = getelementptr inbounds nuw %struct.fieldnode, ptr %82, i32 0, i32 8
  %84 = load i32, ptr %83, align 8, !tbaa !36
  %85 = add nsw i32 %81, %84
  %86 = icmp eq i32 %85, 1
  br i1 %86, label %87, label %107

87:                                               ; preds = %77
  %88 = load ptr, ptr %3, align 8, !tbaa !17
  %89 = getelementptr inbounds nuw %struct.fieldnode, ptr %88, i32 0, i32 6
  %90 = load i32, ptr %89, align 8, !tbaa !29
  %91 = load ptr, ptr %3, align 8, !tbaa !17
  %92 = getelementptr inbounds nuw %struct.fieldnode, ptr %91, i32 0, i32 2
  %93 = load i16, ptr %92, align 4, !tbaa !30
  %94 = sext i16 %93 to i32
  %95 = icmp eq i32 %90, %94
  br i1 %95, label %96, label %107

96:                                               ; preds = %87
  %97 = load ptr, ptr %3, align 8, !tbaa !17
  %98 = getelementptr inbounds nuw %struct.fieldnode, ptr %97, i32 0, i32 16
  %99 = load i32, ptr %98, align 8, !tbaa !23
  %100 = and i32 %99, 512
  %101 = icmp ne i32 %100, 0
  br i1 %101, label %102, label %107

102:                                              ; preds = %96
  %103 = load ptr, ptr %3, align 8, !tbaa !17
  %104 = load ptr, ptr %4, align 8, !tbaa !4
  %105 = getelementptr inbounds nuw %struct.formnode, ptr %104, i32 0, i32 13
  %106 = load ptr, ptr %105, align 8, !tbaa !9
  call void @Undo_Justification(ptr noundef %103, ptr noundef %106)
  br label %112

107:                                              ; preds = %96, %87, %77, %71, %53
  %108 = load ptr, ptr %3, align 8, !tbaa !17
  %109 = load ptr, ptr %4, align 8, !tbaa !4
  %110 = getelementptr inbounds nuw %struct.formnode, ptr %109, i32 0, i32 13
  %111 = load ptr, ptr %110, align 8, !tbaa !9
  call void @Buffer_To_Window(ptr noundef %108, ptr noundef %111)
  br label %112

112:                                              ; preds = %107, %102
  %113 = load ptr, ptr %3, align 8, !tbaa !17
  %114 = getelementptr inbounds nuw %struct.fieldnode, ptr %113, i32 0, i32 0
  %115 = load i16, ptr %114, align 8, !tbaa !37
  %116 = zext i16 %115 to i32
  %117 = or i32 %116, 2
  %118 = trunc i32 %117 to i16
  store i16 %118, ptr %114, align 8, !tbaa !37
  %119 = load ptr, ptr %4, align 8, !tbaa !4
  %120 = call i32 @_nc_Refresh_Current_Field(ptr noundef %119)
  store i32 %120, ptr %5, align 4, !tbaa !35
  br label %124

121:                                              ; preds = %47
  %122 = load ptr, ptr %3, align 8, !tbaa !17
  %123 = call i32 @Display_Or_Erase_Field(ptr noundef %122, i1 noundef zeroext false)
  store i32 %123, ptr %5, align 4, !tbaa !35
  br label %124

124:                                              ; preds = %121, %112
  br label %125

125:                                              ; preds = %124, %35, %29, %20, %15, %10
  %126 = load ptr, ptr %3, align 8, !tbaa !17
  %127 = getelementptr inbounds nuw %struct.fieldnode, ptr %126, i32 0, i32 0
  %128 = load i16, ptr %127, align 8, !tbaa !37
  %129 = zext i16 %128 to i32
  %130 = or i32 %129, 1
  %131 = trunc i32 %130 to i16
  store i16 %131, ptr %127, align 8, !tbaa !37
  %132 = load i32, ptr %5, align 4, !tbaa !35
  store i32 %132, ptr %2, align 4
  store i32 1, ptr %6, align 4
  br label %133

133:                                              ; preds = %125, %9
  call void @llvm.lifetime.end.p0(i64 4, ptr %5) #9
  call void @llvm.lifetime.end.p0(i64 8, ptr %4) #9
  %134 = load i32, ptr %2, align 4
  ret i32 %134
}