; Function Attrs: nounwind uwtable
define internal fastcc range(i32 -2, 1) i32 @Synchronize_Field(ptr noundef %0) unnamed_addr #0 {
  %.not = icmp eq ptr %0, null
  br i1 %.not, label %61, label %2

2:                                                ; preds = %1
  %3 = getelementptr inbounds nuw i8, ptr %0, i64 80
  %4 = load ptr, ptr %3, align 8, !tbaa !44
  %.not33 = icmp eq ptr %4, null
  br i1 %.not33, label %58, label %5

5:                                                ; preds = %2
  %6 = load i16, ptr %4, align 8, !tbaa !45
  %7 = and i16 %6, 1
  %.not34 = icmp eq i16 %7, 0
  br i1 %.not34, label %58, label %8

8:                                                ; preds = %5
  %9 = getelementptr inbounds nuw i8, ptr %0, i64 48
  %10 = load i32, ptr %9, align 8, !tbaa !19
  %11 = and i32 %10, 1
  %.not35 = icmp eq i32 %11, 0
  br i1 %.not35, label %58, label %12

12:                                               ; preds = %8
  %13 = getelementptr inbounds nuw i8, ptr %0, i64 32
  %14 = load i16, ptr %13, align 8, !tbaa !46
  %15 = getelementptr inbounds nuw i8, ptr %4, i64 28
  %16 = load i16, ptr %15, align 4, !tbaa !47
  %17 = icmp eq i16 %14, %16
  br i1 %17, label %18, label %58

18:                                               ; preds = %12
  %19 = getelementptr inbounds nuw i8, ptr %4, i64 72
  %20 = load ptr, ptr %19, align 8, !tbaa !14
  %21 = icmp eq ptr %0, %20
  br i1 %21, label %22, label %56

22:                                               ; preds = %18
  %23 = getelementptr inbounds nuw i8, ptr %4, i64 8
  %24 = getelementptr inbounds nuw i8, ptr %4, i64 56
  tail call void @llvm.memset.p0.i64(ptr noundef nonnull align 8 dereferenceable(16) %23, i8 0, i64 16, i1 false)
  %25 = load ptr, ptr %24, align 8, !tbaa !4
  %26 = tail call i32 @werase(ptr noundef %25) #13
  %27 = load i32, ptr %9, align 8, !tbaa !19
  %28 = and i32 %27, 4
  %.not36 = icmp eq i32 %28, 0
  br i1 %.not36, label %50, label %29

29:                                               ; preds = %22
  %30 = getelementptr inbounds nuw i8, ptr %0, i64 30
  %31 = load i16, ptr %30, align 2, !tbaa !51
  %.not37 = icmp eq i16 %31, 0
  br i1 %.not37, label %50, label %32

32:                                               ; preds = %29
  %33 = getelementptr inbounds nuw i8, ptr %0, i64 2
  %34 = load i16, ptr %33, align 2, !tbaa !25
  %35 = sext i16 %34 to i32
  %36 = getelementptr inbounds nuw i8, ptr %0, i64 24
  %37 = load i32, ptr %36, align 8, !tbaa !33
  %38 = add nsw i32 %37, %35
  %39 = icmp eq i32 %38, 1
  br i1 %39, label %40, label %50

40:                                               ; preds = %32
  %41 = getelementptr inbounds nuw i8, ptr %0, i64 16
  %42 = load i32, ptr %41, align 8, !tbaa !26
  %43 = getelementptr inbounds nuw i8, ptr %0, i64 4
  %44 = load i16, ptr %43, align 4, !tbaa !27
  %45 = sext i16 %44 to i32
  %46 = icmp ne i32 %42, %45
  %47 = and i32 %27, 512
  %.not38 = icmp eq i32 %47, 0
  %or.cond = or i1 %.not38, %46
  br i1 %or.cond, label %50, label %48

48:                                               ; preds = %40
  %49 = load ptr, ptr %24, align 8, !tbaa !4
  tail call fastcc void @Undo_Justification(ptr noundef %0, ptr noundef %49)
  br label %52

50:                                               ; preds = %40, %32, %29, %22
  %51 = load ptr, ptr %24, align 8, !tbaa !4
  tail call fastcc void @Buffer_To_Window(ptr noundef %0, ptr noundef %51)
  br label %52

52:                                               ; preds = %50, %48
  %53 = load i16, ptr %0, align 8, !tbaa !34
  %54 = or i16 %53, 2
  store i16 %54, ptr %0, align 8, !tbaa !34
  %55 = tail call i32 @_nc_Refresh_Current_Field(ptr noundef nonnull %4)
  br label %58

56:                                               ; preds = %18
  %57 = tail call fastcc i32 @Display_Or_Erase_Field(ptr noundef nonnull %0, i1 noundef zeroext false)
  br label %58

58:                                               ; preds = %52, %56, %12, %8, %5, %2
  %.0 = phi i32 [ %55, %52 ], [ %57, %56 ], [ 0, %12 ], [ 0, %8 ], [ 0, %5 ], [ 0, %2 ]
  %59 = load i16, ptr %0, align 8, !tbaa !34
  %60 = or i16 %59, 1
  store i16 %60, ptr %0, align 8, !tbaa !34
  br label %61

61:                                               ; preds = %1, %58
  %.030 = phi i32 [ %.0, %58 ], [ -2, %1 ]
  ret i32 %.030
}